; Function Attrs: mustprogress uwtable
define void @_ZN6icu_7520RemoveTransliterator11registerIDsEv() local_unnamed_addr #1 align 2 personality ptr @__gxx_personality_v0 {
entry:
  %ref.tmp = alloca %"class.icu_75::UnicodeString", align 8
  %agg.tmp = alloca %"class.icu_75::ConstChar16Ptr", align 8
  %ref.tmp6 = alloca %"class.icu_75::UnicodeString", align 8
  %agg.tmp7 = alloca %"class.icu_75::ConstChar16Ptr", align 8
  %ref.tmp10 = alloca %"class.icu_75::UnicodeString", align 8
  %agg.tmp11 = alloca %"class.icu_75::ConstChar16Ptr", align 8
  store ptr @_ZL7CURR_ID, ptr %agg.tmp, align 8
  invoke void @_ZN6icu_7513UnicodeStringC1EaNS_14ConstChar16PtrEi(ptr noundef nonnull align 8 dereferenceable(64) %ref.tmp, i8 noundef signext 1, ptr noundef nonnull %agg.tmp, i32 noundef -1)
          to label %invoke.cont unwind label %lpad

invoke.cont:                                      ; preds = %entry
  invoke void @_ZN6icu_7514Transliterator16_registerFactoryERKNS_13UnicodeStringEPFPS0_S3_NS0_5TokenEES5_(ptr noundef nonnull align 8 dereferenceable(64) %ref.tmp, ptr noundef nonnull @_ZN6icu_75L27RemoveTransliterator_createERKNS_13UnicodeStringENS_14Transliterator5TokenE, ptr null)
          to label %invoke.cont5 unwind label %lpad2

invoke.cont5:                                     ; preds = %invoke.cont
  call void @_ZN6icu_7513UnicodeStringD1Ev(ptr noundef nonnull align 8 dereferenceable(64) %ref.tmp) #5
  %0 = load ptr, ptr %agg.tmp, align 8
  call void asm sideeffect "", "rm,~{memory},~{dirflag},~{fpsr},~{flags}"(ptr %0) #5, !srcloc !4
  store ptr @.str, ptr %agg.tmp7, align 8
  invoke void @_ZN6icu_7513UnicodeStringC1EaNS_14ConstChar16PtrEi(ptr noundef nonnull align 8 dereferenceable(64) %ref.tmp6, i8 noundef signext 1, ptr noundef nonnull %agg.tmp7, i32 noundef -1)
          to label %invoke.cont9 unwind label %lpad8

invoke.cont9:                                     ; preds = %invoke.cont5
  store ptr @.str.1, ptr %agg.tmp11, align 8
  invoke void @_ZN6icu_7513UnicodeStringC1EaNS_14ConstChar16PtrEi(ptr noundef nonnull align 8 dereferenceable(64) %ref.tmp10, i8 noundef signext 1, ptr noundef nonnull %agg.tmp11, i32 noundef -1)
          to label %invoke.cont15 unwind label %lpad14

invoke.cont15:                                    ; preds = %invoke.cont9
  invoke void @_ZN6icu_7514Transliterator23_registerSpecialInverseERKNS_13UnicodeStringES3_a(ptr noundef nonnull align 8 dereferenceable(64) %ref.tmp6, ptr noundef nonnull align 8 dereferenceable(64) %ref.tmp10, i8 noundef signext 0)
          to label %invoke.cont17 unwind label %lpad16

invoke.cont17:                                    ; preds = %invoke.cont15
  call void @_ZN6icu_7513UnicodeStringD1Ev(ptr noundef nonnull align 8 dereferenceable(64) %ref.tmp10) #5
  %1 = load ptr, ptr %agg.tmp11, align 8
  call void asm sideeffect "", "rm,~{memory},~{dirflag},~{fpsr},~{flags}"(ptr %1) #5, !srcloc !4
  call void @_ZN6icu_7513UnicodeStringD1Ev(ptr noundef nonnull align 8 dereferenceable(64) %ref.tmp6) #5
  %2 = load ptr, ptr %agg.tmp7, align 8
  call void asm sideeffect "", "rm,~{memory},~{dirflag},~{fpsr},~{flags}"(ptr %2) #5, !srcloc !4
  ret void

lpad:                                             ; preds = %entry
  %3 = landingpad { ptr, i32 }
          cleanup
  br label %ehcleanup

lpad2:                                            ; preds = %invoke.cont
  %4 = landingpad { ptr, i32 }
          cleanup
  call void @_ZN6icu_7513UnicodeStringD1Ev(ptr noundef nonnull align 8 dereferenceable(64) %ref.tmp) #5
  br label %ehcleanup

ehcleanup:                                        ; preds = %lpad2, %lpad
  %.pn = phi { ptr, i32 } [ %4, %lpad2 ], [ %3, %lpad ]
  %5 = load ptr, ptr %agg.tmp, align 8
  call void asm sideeffect "", "rm,~{memory},~{dirflag},~{fpsr},~{flags}"(ptr %5) #5, !srcloc !4
  br label %eh.resume

lpad8:                                            ; preds = %invoke.cont5
  %6 = landingpad { ptr, i32 }
          cleanup
  br label %ehcleanup21

lpad14:                                           ; preds = %invoke.cont9
  %7 = landingpad { ptr, i32 }
          cleanup
  br label %ehcleanup19

lpad16:                                           ; preds = %invoke.cont15
  %8 = landingpad { ptr, i32 }
          cleanup
  call void @_ZN6icu_7513UnicodeStringD1Ev(ptr noundef nonnull align 8 dereferenceable(64) %ref.tmp10) #5
  br label %ehcleanup19

ehcleanup19:                                      ; preds = %lpad16, %lpad14
  %.pn2 = phi { ptr, i32 } [ %8, %lpad16 ], [ %7, %lpad14 ]
  %9 = load ptr, ptr %agg.tmp11, align 8
  call void asm sideeffect "", "rm,~{memory},~{dirflag},~{fpsr},~{flags}"(ptr %9) #5, !srcloc !4
  call void @_ZN6icu_7513UnicodeStringD1Ev(ptr noundef nonnull align 8 dereferenceable(64) %ref.tmp6) #5
  br label %ehcleanup21

ehcleanup21:                                      ; preds = %ehcleanup19, %lpad8
  %.pn2.pn = phi { ptr, i32 } [ %.pn2, %ehcleanup19 ], [ %6, %lpad8 ]
  %10 = load ptr, ptr %agg.tmp7, align 8
  call void asm sideeffect "", "rm,~{memory},~{dirflag},~{fpsr},~{flags}"(ptr %10) #5, !srcloc !4
  br label %eh.resume

eh.resume:                                        ; preds = %ehcleanup21, %ehcleanup
  %.pn2.pn.pn = phi { ptr, i32 } [ %.pn2.pn, %ehcleanup21 ], [ %.pn, %ehcleanup ]
  resume { ptr, i32 } %.pn2.pn.pn
}